target datalayout = "e-m:e-p270:32:32-p271:32:32-p272:64:64-i64:64-i128:128-f80:128-n8:16:32:64-S128"
target triple = "x86_64-pc-linux-gnu"

@SysCache = internal global [85 x ptr] zeroinitializer, align 16
@.str.1 = private unnamed_addr constant [11 x i8] c"syscache.c\00", align 1
@.str.2 = private unnamed_addr constant [21 x i8] c"invalid cache ID: %d\00", align 1
@__func__.SysCacheInvalidate = private unnamed_addr constant [19 x i8] c"SysCacheInvalidate\00", align 1

; Function Attrs: nounwind uwtable
define dso_local void @SysCacheInvalidate(i32 noundef %0, i32 noundef %1) #0 {
  %3 = alloca i32, align 4
  %4 = alloca i32, align 4
  store i32 %0, ptr %3, align 4
  store i32 %1, ptr %4, align 4
  %5 = load i32, ptr %3, align 4
  %6 = icmp slt i32 %5, 0
  br i1 %6, label %10, label %7

7:                                                ; preds = %2
  %8 = load i32, ptr %3, align 4
  %9 = icmp sge i32 %8, 85
  br i1 %9, label %10, label %21

10:                                               ; preds = %7, %2
  br label %11

11:                                               ; preds = %10
  br i1 true, label %12, label %14

12:                                               ; preds = %11
  %13 = call zeroext i1 @errstart_cold(i32 noundef 21, ptr noundef null) #7
  br i1 %13, label %16, label %19

14:                                               ; preds = %11
  %15 = call zeroext i1 @errstart(i32 noundef 21, ptr noundef null)
  br i1 %15, label %16, label %19

16:                                               ; preds = %14, %12
  %17 = load i32, ptr %3, align 4
  %18 = call i32 (ptr, ...) @errmsg_internal(ptr noundef @.str.2, i32 noundef %17)
  call void @errfinish(ptr noundef @.str.1, i32 noundef 701, ptr noundef @__func__.SysCacheInvalidate)
  br label %19

19:                                               ; preds = %16, %14, %12
  unreachable

20:                                               ; No predecessors!
  br label %21

21:                                               ; preds = %20, %7
  %22 = load i32, ptr %3, align 4
  %23 = sext i32 %22 to i64
  %24 = getelementptr inbounds [85 x ptr], ptr @SysCache, i64 0, i64 %23
  %25 = load ptr, ptr %24, align 8
  %26 = icmp ne ptr %25, null
  br i1 %26, label %28, label %27

27:                                               ; preds = %21
  br label %34

28:                                               ; preds = %21
  %29 = load i32, ptr %3, align 4
  %30 = sext i32 %29 to i64
  %31 = getelementptr inbounds [85 x ptr], ptr @SysCache, i64 0, i64 %30
  %32 = load ptr, ptr %31, align 8
  %33 = load i32, ptr %4, align 4
  call void @CatCacheInvalidate(ptr noundef %32, i32 noundef %33)
  br label %34

34:                                               ; preds = %28, %27
  ret void
}