; Function Attrs: nounwind uwtable
define dso_local void @SysCacheInvalidate(i32 noundef %0, i32 noundef %1) local_unnamed_addr #0 {
  %or.cond = icmp ugt i32 %0, 84
  br i1 %or.cond, label %3, label %6

3:                                                ; preds = %2
  %4 = tail call zeroext i1 @errstart_cold(i32 noundef 21, ptr noundef null) #12
  tail call void @llvm.assume(i1 %4)
  %5 = tail call i32 (ptr, ...) @errmsg_internal(ptr noundef nonnull @.str.2, i32 noundef %0) #11
  tail call void @errfinish(ptr noundef nonnull @.str.1, i32 noundef 701, ptr noundef nonnull @__func__.SysCacheInvalidate) #11
  unreachable

6:                                                ; preds = %2
  %7 = zext nneg i32 %0 to i64
  %8 = getelementptr inbounds nuw [85 x ptr], ptr @SysCache, i64 0, i64 %7
  %9 = load ptr, ptr %8, align 8
  %.not = icmp eq ptr %9, null
  br i1 %.not, label %11, label %10

10:                                               ; preds = %6
  tail call void @CatCacheInvalidate(ptr noundef nonnull %9, i32 noundef %1) #11
  br label %11

11:                                               ; preds = %6, %10
  ret void
}